target datalayout = "e-m:e-p270:32:32-p271:32:32-p272:64:64-i64:64-i128:128-f80:128-n8:16:32:64-S128"
target triple = "x86_64-pc-linux-gnu"

%struct.ffc_params_st = type { ptr, ptr, ptr, ptr, ptr, i64, i32, i32, i32, i32, i32, ptr, ptr, i32 }

@.str.9 = private unnamed_addr constant [36 x i8] c"../openssl/test/ffc_internal_test.c\00", align 1
@.str.13 = private unnamed_addr constant [82 x i8] c"ossl_ffc_params_FIPS186_4_validate(NULL, &params, FFC_PARAM_TYPE_DSA, &res, NULL)\00", align 1
@.str.23 = private unnamed_addr constant [43 x i8] c"ossl_ffc_params_print(bio_out, &params, 4)\00", align 1
@bio_out = external global ptr, align 8
@.str.24 = private unnamed_addr constant [14 x i8] c"bn = BN_new()\00", align 1
@.str.25 = private unnamed_addr constant [92 x i8] c"ossl_ffc_params_FIPS186_2_generate(NULL, &params, FFC_PARAM_TYPE_DH, 1024, 160, &res, NULL)\00", align 1
@.str.26 = private unnamed_addr constant [81 x i8] c"ossl_ffc_params_FIPS186_2_validate(NULL, &params, FFC_PARAM_TYPE_DH, &res, NULL)\00", align 1
@.str.27 = private unnamed_addr constant [60 x i8] c"res == FFC_CHECK_Q_MISMATCH || res == FFC_CHECK_Q_NOT_PRIME\00", align 1
@.str.28 = private unnamed_addr constant [2 x i8] c"2\00", align 1

; Function Attrs: nounwind uwtable
define internal i32 @ffc_params_fips186_2_gen_validate_test() #0 {
  %1 = alloca i32, align 4
  %2 = alloca i32, align 4
  %3 = alloca %struct.ffc_params_st, align 8
  %4 = alloca ptr, align 8
  call void @llvm.lifetime.start.p0(i64 4, ptr %1) #3
  store i32 0, ptr %1, align 4, !tbaa !4
  call void @llvm.lifetime.start.p0(i64 4, ptr %2) #3
  store i32 -1, ptr %2, align 4, !tbaa !4
  call void @llvm.lifetime.start.p0(i64 96, ptr %3) #3
  call void @llvm.lifetime.start.p0(i64 8, ptr %4) #3
  store ptr null, ptr %4, align 8, !tbaa !8
  call void @ossl_ffc_params_init(ptr noundef %3)
  %5 = call ptr @BN_new()
  store ptr %5, ptr %4, align 8, !tbaa !8
  %6 = call i32 @test_ptr(ptr noundef @.str.9, i32 noundef 399, ptr noundef @.str.24, ptr noundef %5)
  %7 = icmp ne i32 %6, 0
  br i1 %7, label %9, label %8

8:                                                ; preds = %0
  br label %58

9:                                                ; preds = %0
  %10 = call i32 @ossl_ffc_params_FIPS186_2_generate(ptr noundef null, ptr noundef %3, i32 noundef 1, i64 noundef 1024, i64 noundef 160, ptr noundef %2, ptr noundef null)
  %11 = icmp ne i32 %10, 0
  %12 = zext i1 %11 to i32
  %13 = call i32 @test_true(ptr noundef @.str.9, i32 noundef 403, ptr noundef @.str.25, i32 noundef %12)
  %14 = icmp ne i32 %13, 0
  br i1 %14, label %16, label %15

15:                                               ; preds = %9
  br label %58

16:                                               ; preds = %9
  %17 = call i32 @ossl_ffc_params_FIPS186_2_validate(ptr noundef null, ptr noundef %3, i32 noundef 1, ptr noundef %2, ptr noundef null)
  %18 = icmp ne i32 %17, 0
  %19 = zext i1 %18 to i32
  %20 = call i32 @test_true(ptr noundef @.str.9, i32 noundef 407, ptr noundef @.str.26, i32 noundef %19)
  %21 = icmp ne i32 %20, 0
  br i1 %21, label %23, label %22

22:                                               ; preds = %16
  br label %58

23:                                               ; preds = %16
  %24 = call i32 @ossl_ffc_params_FIPS186_4_validate(ptr noundef null, ptr noundef %3, i32 noundef 0, ptr noundef %2, ptr noundef null)
  %25 = icmp ne i32 %24, 0
  %26 = zext i1 %25 to i32
  %27 = call i32 @test_false(ptr noundef @.str.9, i32 noundef 416, ptr noundef @.str.13, i32 noundef %26)
  %28 = icmp ne i32 %27, 0
  br i1 %28, label %30, label %29

29:                                               ; preds = %23
  br label %58

30:                                               ; preds = %23
  %31 = load i32, ptr %2, align 4, !tbaa !4
  %32 = icmp eq i32 %31, 16384
  br i1 %32, label %36, label %33

33:                                               ; preds = %30
  %34 = load i32, ptr %2, align 4, !tbaa !4
  %35 = icmp eq i32 %34, 16
  br label %36

36:                                               ; preds = %33, %30
  %37 = phi i1 [ true, %30 ], [ %35, %33 ]
  %38 = zext i1 %37 to i32
  %39 = icmp ne i32 %38, 0
  %40 = zext i1 %39 to i32
  %41 = call i32 @test_true(ptr noundef @.str.9, i32 noundef 419, ptr noundef @.str.27, i32 noundef %40)
  %42 = icmp ne i32 %41, 0
  br i1 %42, label %44, label %43

43:                                               ; preds = %36
  br label %58

44:                                               ; preds = %36
  call void @ossl_ffc_params_set_flags(ptr noundef %3, i32 noundef 2)
  %45 = call i32 @ossl_ffc_params_FIPS186_4_validate(ptr noundef null, ptr noundef %3, i32 noundef 0, ptr noundef %2, ptr noundef null)
  %46 = call i32 @test_int_eq(ptr noundef @.str.9, i32 noundef 426, ptr noundef @.str.13, ptr noundef @.str.28, i32 noundef %45, i32 noundef 2)
  %47 = icmp ne i32 %46, 0
  br i1 %47, label %49, label %48

48:                                               ; preds = %44
  br label %58

49:                                               ; preds = %44
  %50 = load ptr, ptr @bio_out, align 8, !tbaa !15
  %51 = call i32 @ossl_ffc_params_print(ptr noundef %50, ptr noundef %3, i32 noundef 4)
  %52 = icmp ne i32 %51, 0
  %53 = zext i1 %52 to i32
  %54 = call i32 @test_true(ptr noundef @.str.9, i32 noundef 429, ptr noundef @.str.23, i32 noundef %53)
  %55 = icmp ne i32 %54, 0
  br i1 %55, label %57, label %56

56:                                               ; preds = %49
  br label %58

57:                                               ; preds = %49
  store i32 1, ptr %1, align 4, !tbaa !4
  br label %58

58:                                               ; preds = %57, %56, %48, %43, %29, %22, %15, %8
  %59 = load ptr, ptr %4, align 8, !tbaa !8
  call void @BN_free(ptr noundef %59)
  call void @ossl_ffc_params_cleanup(ptr noundef %3)
  %60 = load i32, ptr %1, align 4, !tbaa !4
  call void @llvm.lifetime.end.p0(i64 8, ptr %4) #3
  call void @llvm.lifetime.end.p0(i64 96, ptr %3) #3
  call void @llvm.lifetime.end.p0(i64 4, ptr %2) #3
  call void @llvm.lifetime.end.p0(i64 4, ptr %1) #3
  ret i32 %60
}