; Function Attrs: nounwind uwtable
define internal range(i32 0, 2) i32 @ffc_params_fips186_2_gen_validate_test() #0 {
  %1 = alloca i32, align 4
  %2 = alloca %struct.ffc_params_st, align 8
  call void @llvm.lifetime.start.p0(i64 4, ptr nonnull %1) #3
  store i32 -1, ptr %1, align 4, !tbaa !4
  call void @llvm.lifetime.start.p0(i64 96, ptr nonnull %2) #3
  call void @ossl_ffc_params_init(ptr noundef nonnull %2) #3
  %3 = call ptr @BN_new() #3
  %4 = call i32 @test_ptr(ptr noundef nonnull @.str.9, i32 noundef 399, ptr noundef nonnull @.str.24, ptr noundef %3) #3
  %.not = icmp eq i32 %4, 0
  br i1 %.not, label %36, label %5

5:                                                ; preds = %0
  %6 = call i32 @ossl_ffc_params_FIPS186_2_generate(ptr noundef null, ptr noundef nonnull %2, i32 noundef 1, i64 noundef 1024, i64 noundef 160, ptr noundef nonnull %1, ptr noundef null) #3
  %7 = icmp ne i32 %6, 0
  %8 = zext i1 %7 to i32
  %9 = call i32 @test_true(ptr noundef nonnull @.str.9, i32 noundef 403, ptr noundef nonnull @.str.25, i32 noundef %8) #3
  %.not1 = icmp eq i32 %9, 0
  br i1 %.not1, label %36, label %10

10:                                               ; preds = %5
  %11 = call i32 @ossl_ffc_params_FIPS186_2_validate(ptr noundef null, ptr noundef nonnull %2, i32 noundef 1, ptr noundef nonnull %1, ptr noundef null) #3
  %12 = icmp ne i32 %11, 0
  %13 = zext i1 %12 to i32
  %14 = call i32 @test_true(ptr noundef nonnull @.str.9, i32 noundef 407, ptr noundef nonnull @.str.26, i32 noundef %13) #3
  %.not2 = icmp eq i32 %14, 0
  br i1 %.not2, label %36, label %15

15:                                               ; preds = %10
  %16 = call i32 @ossl_ffc_params_FIPS186_4_validate(ptr noundef null, ptr noundef nonnull %2, i32 noundef 0, ptr noundef nonnull %1, ptr noundef null) #3
  %17 = icmp ne i32 %16, 0
  %18 = zext i1 %17 to i32
  %19 = call i32 @test_false(ptr noundef nonnull @.str.9, i32 noundef 416, ptr noundef nonnull @.str.13, i32 noundef %18) #3
  %.not3 = icmp eq i32 %19, 0
  br i1 %.not3, label %36, label %20

20:                                               ; preds = %15
  %21 = load i32, ptr %1, align 4, !tbaa !4
  %22 = icmp eq i32 %21, 16384
  %23 = icmp eq i32 %21, 16
  %24 = or i1 %22, %23
  %25 = zext i1 %24 to i32
  %26 = call i32 @test_true(ptr noundef nonnull @.str.9, i32 noundef 419, ptr noundef nonnull @.str.27, i32 noundef %25) #3
  %.not4 = icmp eq i32 %26, 0
  br i1 %.not4, label %36, label %27

27:                                               ; preds = %20
  call void @ossl_ffc_params_set_flags(ptr noundef nonnull %2, i32 noundef 2) #3
  %28 = call i32 @ossl_ffc_params_FIPS186_4_validate(ptr noundef null, ptr noundef nonnull %2, i32 noundef 0, ptr noundef nonnull %1, ptr noundef null) #3
  %29 = call i32 @test_int_eq(ptr noundef nonnull @.str.9, i32 noundef 426, ptr noundef nonnull @.str.13, ptr noundef nonnull @.str.28, i32 noundef %28, i32 noundef 2) #3
  %.not5 = icmp eq i32 %29, 0
  br i1 %.not5, label %36, label %30

30:                                               ; preds = %27
  %31 = load ptr, ptr @bio_out, align 8, !tbaa !14
  %32 = call i32 @ossl_ffc_params_print(ptr noundef %31, ptr noundef nonnull %2, i32 noundef 4) #3
  %33 = icmp ne i32 %32, 0
  %34 = zext i1 %33 to i32
  %35 = call i32 @test_true(ptr noundef nonnull @.str.9, i32 noundef 429, ptr noundef nonnull @.str.23, i32 noundef %34) #3
  %.not6 = icmp ne i32 %35, 0
  %spec.select = zext i1 %.not6 to i32
  br label %36

36:                                               ; preds = %30, %27, %20, %15, %10, %5, %0
  %.0 = phi i32 [ 0, %27 ], [ 0, %20 ], [ 0, %15 ], [ 0, %10 ], [ 0, %5 ], [ 0, %0 ], [ %spec.select, %30 ]
  call void @BN_free(ptr noundef %3) #3
  call void @ossl_ffc_params_cleanup(ptr noundef nonnull %2) #3
  call void @llvm.lifetime.end.p0(i64 96, ptr nonnull %2) #3
  call void @llvm.lifetime.end.p0(i64 4, ptr nonnull %1) #3
  ret i32 %.0
}